target datalayout = "e-m:e-p270:32:32-p271:32:32-p272:64:64-i64:64-i128:128-f80:128-n8:16:32:64-S128"
target triple = "x86_64-pc-linux-gnu"

%"struct.std::pair.0" = type { ptr, i64 }
%"struct.std::pair" = type <{ %"struct.std::_Rb_tree_iterator", i8, [7 x i8] }>
%"struct.std::_Rb_tree_iterator" = type { ptr }
%"class.YAML::NodeEvents::AliasManager" = type { %"class.std::map", i64 }
%"class.std::map" = type { %"class.std::_Rb_tree" }
%"class.std::_Rb_tree" = type { %"struct.std::_Rb_tree<const YAML::detail::node_ref *, std::pair<const YAML::detail::node_ref *const, unsigned long>, std::_Select1st<std::pair<const YAML::detail::node_ref *const, unsigned long>>, std::less<const YAML::detail::node_ref *>>::_Rb_tree_impl" }
%"struct.std::_Rb_tree<const YAML::detail::node_ref *, std::pair<const YAML::detail::node_ref *const, unsigned long>, std::_Select1st<std::pair<const YAML::detail::node_ref *const, unsigned long>>, std::less<const YAML::detail::node_ref *>>::_Rb_tree_impl" = type { [8 x i8], %"struct.std::_Rb_tree_header" }
%"struct.std::_Rb_tree_header" = type { %"struct.std::_Rb_tree_node_base", i64 }
%"struct.std::_Rb_tree_node_base" = type { i32, ptr, ptr, ptr }
%"class.YAML::detail::node" = type { %"class.std::shared_ptr", %"class.std::set", i64 }
%"class.std::shared_ptr" = type { %"class.std::__shared_ptr" }
%"class.std::__shared_ptr" = type { ptr, %"class.std::__shared_count" }
%"class.std::__shared_count" = type { ptr }
%"class.std::set" = type { %"class.std::_Rb_tree.2" }
%"class.std::_Rb_tree.2" = type { %"struct.std::_Rb_tree<YAML::detail::node *, YAML::detail::node *, std::_Identity<YAML::detail::node *>, YAML::detail::node::less>::_Rb_tree_impl" }
%"struct.std::_Rb_tree<YAML::detail::node *, YAML::detail::node *, std::_Identity<YAML::detail::node *>, YAML::detail::node::less>::_Rb_tree_impl" = type { [8 x i8], %"struct.std::_Rb_tree_header" }

; Function Attrs: mustprogress nounwind uwtable
define linkonce_odr void @_ZNSt4pairIPKN4YAML6detail8node_refEmEC2IS4_mTnNSt9enable_ifIXaaclsr5_PCCPE22_MoveConstructiblePairIT_T0_EEclsr5_PCCPE30_ImplicitlyMoveConvertiblePairIS8_S9_EEEbE4typeELb1EEEOS8_OS9_(ptr noundef nonnull align 8 dereferenceable(16) %0, ptr noundef nonnull align 8 dereferenceable(8) %1, ptr noundef nonnull align 8 dereferenceable(8) %2) unnamed_addr #2 comdat align 2 {
  %4 = alloca ptr, align 8
  %5 = alloca ptr, align 8
  %6 = alloca ptr, align 8
  store ptr %0, ptr %4, align 8, !tbaa !16
  store ptr %1, ptr %5, align 8, !tbaa !18
  store ptr %2, ptr %6, align 8, !tbaa !21
  %7 = load ptr, ptr %4, align 8
  %8 = getelementptr inbounds nuw %"struct.std::pair.0", ptr %7, i32 0, i32 0
  %9 = load ptr, ptr %5, align 8, !tbaa !18
  %10 = load ptr, ptr %9, align 8, !tbaa !10
  store ptr %10, ptr %8, align 8, !tbaa !110
  %11 = getelementptr inbounds nuw %"struct.std::pair.0", ptr %7, i32 0, i32 1
  %12 = load ptr, ptr %6, align 8, !tbaa !21
  %13 = load i64, ptr %12, align 8, !tbaa !12
  store i64 %13, ptr %11, align 8, !tbaa !112
  ret void
}

; Function Attrs: mustprogress nounwind uwtable
define linkonce_odr noundef ptr @_ZNKSt12__shared_ptrIN4YAML6detail8node_refELN9__gnu_cxx12_Lock_policyE2EE3getEv(ptr noundef nonnull align 8 dereferenceable(16) %0) #2 comdat align 2 {
  %2 = alloca ptr, align 8
  store ptr %0, ptr %2, align 8, !tbaa !113
  %3 = load ptr, ptr %2, align 8
  %4 = getelementptr inbounds nuw %"class.std::__shared_ptr", ptr %3, i32 0, i32 0
  %5 = load ptr, ptr %4, align 8, !tbaa !115
  ret ptr %5
}

; Function Attrs: mustprogress uwtable
define linkonce_odr { ptr, i8 } @_ZNSt3mapIPKN4YAML6detail8node_refEmSt4lessIS4_ESaISt4pairIKS4_mEEE6insertIS7_IS4_mEEENSt9enable_ifIXsr16is_constructibleIS9_T_EE5valueES7_ISt17_Rb_tree_iteratorIS9_EbEE4typeEOSF_(ptr noundef nonnull align 8 dereferenceable(48) %0, ptr noundef nonnull align 8 dereferenceable(16) %1) #0 comdat align 2 {
  %3 = alloca %"struct.std::pair", align 8
  %4 = alloca ptr, align 8
  %5 = alloca ptr, align 8
  %6 = alloca { ptr, i8 }, align 8
  store ptr %0, ptr %4, align 8, !tbaa !14
  store ptr %1, ptr %5, align 8, !tbaa !16
  %7 = load ptr, ptr %4, align 8
  %8 = getelementptr inbounds nuw %"class.std::map", ptr %7, i32 0, i32 0
  %9 = load ptr, ptr %5, align 8, !tbaa !16
  %10 = call { ptr, i8 } @_ZNSt8_Rb_treeIPKN4YAML6detail8node_refESt4pairIKS4_mESt10_Select1stIS7_ESt4lessIS4_ESaIS7_EE17_M_emplace_uniqueIJS5_IS4_mEEEES5_ISt17_Rb_tree_iteratorIS7_EbEDpOT_(ptr noundef nonnull align 8 dereferenceable(48) %8, ptr noundef nonnull align 8 dereferenceable(16) %9)
  store { ptr, i8 } %10, ptr %6, align 8
  call void @llvm.memcpy.p0.p0.i64(ptr align 8 %3, ptr align 8 %6, i64 9, i1 false)
  %11 = load { ptr, i8 }, ptr %3, align 8
  ret { ptr, i8 } %11
}

; Function Attrs: mustprogress uwtable
define linkonce_odr { ptr, i64 } @_ZSt9make_pairIPKN4YAML6detail8node_refEmESt4pairINSt25__strip_reference_wrapperINSt5decayIT_E4typeEE6__typeENS6_INS7_IT0_E4typeEE6__typeEEOS8_OSD_(ptr noundef nonnull align 8 dereferenceable(8) %0, ptr noundef nonnull align 8 dereferenceable(8) %1) #0 comdat {
  %3 = alloca %"struct.std::pair.0", align 8
  %4 = alloca ptr, align 8
  %5 = alloca ptr, align 8
  store ptr %0, ptr %4, align 8, !tbaa !18
  store ptr %1, ptr %5, align 8, !tbaa !21
  %6 = load ptr, ptr %4, align 8, !tbaa !18
  %7 = load ptr, ptr %5, align 8, !tbaa !21
  call void @_ZNSt4pairIPKN4YAML6detail8node_refEmEC2IS4_mTnNSt9enable_ifIXaaclsr5_PCCPE22_MoveConstructiblePairIT_T0_EEclsr5_PCCPE30_ImplicitlyMoveConvertiblePairIS8_S9_EEEbE4typeELb1EEEOS8_OS9_(ptr noundef nonnull align 8 dereferenceable(16) %3, ptr noundef nonnull align 8 dereferenceable(8) %6, ptr noundef nonnull align 8 dereferenceable(8) %7)
  %8 = load { ptr, i64 }, ptr %3, align 8
  ret { ptr, i64 } %8
}

; Function Attrs: mustprogress nounwind uwtable
define linkonce_odr noundef i64 @_ZN4YAML10NodeEvents12AliasManager16_CreateNewAnchorEv(ptr noundef nonnull align 8 dereferenceable(56) %0) #2 comdat align 2 {
  %2 = alloca ptr, align 8
  store ptr %0, ptr %2, align 8, !tbaa !3
  %3 = load ptr, ptr %2, align 8
  %4 = getelementptr inbounds nuw %"class.YAML::NodeEvents::AliasManager", ptr %3, i32 0, i32 1
  %5 = load i64, ptr %4, align 8, !tbaa !23
  %6 = add i64 %5, 1
  store i64 %6, ptr %4, align 8, !tbaa !23
  ret i64 %6
}

; Function Attrs: mustprogress nounwind uwtable
define linkonce_odr noundef ptr @_ZNK4YAML6detail4node3refEv(ptr noundef nonnull align 8 dereferenceable(72) %0) #2 comdat align 2 {
  %2 = alloca ptr, align 8
  store ptr %0, ptr %2, align 8, !tbaa !8
  %3 = load ptr, ptr %2, align 8
  %4 = getelementptr inbounds nuw %"class.YAML::detail::node", ptr %3, i32 0, i32 0
  %5 = call noundef ptr @_ZNKSt12__shared_ptrIN4YAML6detail8node_refELN9__gnu_cxx12_Lock_policyE2EE3getEv(ptr noundef nonnull align 8 dereferenceable(16) %4) #18
  ret ptr %5
}

; Function Attrs: mustprogress uwtable
define void @_ZN4YAML10NodeEvents12AliasManager17RegisterReferenceERKNS_6detail4nodeE(ptr noundef nonnull align 8 dereferenceable(56) %0, ptr noundef nonnull align 8 dereferenceable(72) %1) #0 align 2 {
  %3 = alloca ptr, align 8
  %4 = alloca ptr, align 8
  %5 = alloca %"struct.std::pair.0", align 8
  %6 = alloca ptr, align 8
  %7 = alloca i64, align 8
  %8 = alloca %"struct.std::pair", align 8
  store ptr %0, ptr %3, align 8, !tbaa !3
  store ptr %1, ptr %4, align 8, !tbaa !8
  %9 = load ptr, ptr %3, align 8
  %10 = getelementptr inbounds nuw %"class.YAML::NodeEvents::AliasManager", ptr %9, i32 0, i32 0
  call void @llvm.lifetime.start.p0(i64 16, ptr %5) #18
  call void @llvm.lifetime.start.p0(i64 8, ptr %6) #18
  %11 = load ptr, ptr %4, align 8, !tbaa !8
  %12 = call noundef ptr @_ZNK4YAML6detail4node3refEv(ptr noundef nonnull align 8 dereferenceable(72) %11)
  store ptr %12, ptr %6, align 8, !tbaa !10
  call void @llvm.lifetime.start.p0(i64 8, ptr %7) #18
  %13 = call noundef i64 @_ZN4YAML10NodeEvents12AliasManager16_CreateNewAnchorEv(ptr noundef nonnull align 8 dereferenceable(56) %9)
  store i64 %13, ptr %7, align 8, !tbaa !12
  %14 = call { ptr, i64 } @_ZSt9make_pairIPKN4YAML6detail8node_refEmESt4pairINSt25__strip_reference_wrapperINSt5decayIT_E4typeEE6__typeENS6_INS7_IT0_E4typeEE6__typeEEOS8_OSD_(ptr noundef nonnull align 8 dereferenceable(8) %6, ptr noundef nonnull align 8 dereferenceable(8) %7)
  %15 = getelementptr inbounds nuw { ptr, i64 }, ptr %5, i32 0, i32 0
  %16 = extractvalue { ptr, i64 } %14, 0
  store ptr %16, ptr %15, align 8
  %17 = getelementptr inbounds nuw { ptr, i64 }, ptr %5, i32 0, i32 1
  %18 = extractvalue { ptr, i64 } %14, 1
  store i64 %18, ptr %17, align 8
  %19 = call { ptr, i8 } @_ZNSt3mapIPKN4YAML6detail8node_refEmSt4lessIS4_ESaISt4pairIKS4_mEEE6insertIS7_IS4_mEEENSt9enable_ifIXsr16is_constructibleIS9_T_EE5valueES7_ISt17_Rb_tree_iteratorIS9_EbEE4typeEOSF_(ptr noundef nonnull align 8 dereferenceable(48) %10, ptr noundef nonnull align 8 dereferenceable(16) %5)
  %20 = getelementptr inbounds nuw { ptr, i8 }, ptr %8, i32 0, i32 0
  %21 = extractvalue { ptr, i8 } %19, 0
  store ptr %21, ptr %20, align 8
  %22 = getelementptr inbounds nuw { ptr, i8 }, ptr %8, i32 0, i32 1
  %23 = extractvalue { ptr, i8 } %19, 1
  store i8 %23, ptr %22, align 8
  call void @llvm.lifetime.end.p0(i64 8, ptr %7) #18
  call void @llvm.lifetime.end.p0(i64 8, ptr %6) #18
  call void @llvm.lifetime.end.p0(i64 16, ptr %5) #18
  ret void
}