; Function Attrs: mustprogress uwtable
define void @_ZN4YAML10NodeEvents12AliasManager17RegisterReferenceERKNS_6detail4nodeE(ptr noundef nonnull align 8 dereferenceable(56) %0, ptr noundef nonnull readonly align 8 captures(none) dereferenceable(72) %1) local_unnamed_addr #0 align 2 {
  %3 = alloca %"struct.std::pair.0", align 8
  call void @llvm.lifetime.start.p0(i64 16, ptr nonnull %3) #15
  %4 = load ptr, ptr %1, align 8, !tbaa !3
  %5 = getelementptr inbounds nuw i8, ptr %0, i64 48
  %6 = load i64, ptr %5, align 8, !tbaa !11
  %7 = add i64 %6, 1
  store i64 %7, ptr %5, align 8, !tbaa !11
  store ptr %4, ptr %3, align 8
  %8 = getelementptr inbounds nuw i8, ptr %3, i64 8
  store i64 %7, ptr %8, align 8
  %9 = call { ptr, i8 } @_ZNSt8_Rb_treeIPKN4YAML6detail8node_refESt4pairIKS4_mESt10_Select1stIS7_ESt4lessIS4_ESaIS7_EE17_M_emplace_uniqueIJS5_IS4_mEEEES5_ISt17_Rb_tree_iteratorIS7_EbEDpOT_(ptr noundef nonnull align 8 dereferenceable(48) %0, ptr noundef nonnull align 8 dereferenceable(16) %3)
  call void @llvm.lifetime.end.p0(i64 16, ptr nonnull %3) #15
  ret void
}